target datalayout = "e-m:e-p270:32:32-p271:32:32-p272:64:64-i64:64-i128:128-f80:128-n8:16:32:64-S128"
target triple = "x86_64-pc-linux-gnu"

@.str.32 = private unnamed_addr constant [4 x i8] c"%ld\00", align 1
@.str.538 = private unnamed_addr constant [15 x i8] c"H5T_CSET_ERROR\00", align 1
@.str.539 = private unnamed_addr constant [15 x i8] c"H5T_CSET_ASCII\00", align 1
@.str.540 = private unnamed_addr constant [14 x i8] c"H5T_CSET_UTF8\00", align 1
@.str.541 = private unnamed_addr constant [22 x i8] c"H5T_CSET_RESERVED_%ld\00", align 1

; Function Attrs: nounwind uwtable
define internal i32 @H5_trace_args_cset(ptr noundef %0, i32 noundef %1) #0 {
  %3 = alloca ptr, align 8
  %4 = alloca i32, align 4
  store ptr %0, ptr %3, align 8, !tbaa !3
  store i32 %1, ptr %4, align 4, !tbaa !12
  %5 = load i32, ptr %4, align 4, !tbaa !12
  switch i32 %5, label %20 [
    i32 -1, label %6
    i32 0, label %9
    i32 1, label %12
    i32 2, label %15
    i32 3, label %15
    i32 4, label %15
    i32 5, label %15
    i32 6, label %15
    i32 7, label %15
    i32 8, label %15
    i32 9, label %15
    i32 10, label %15
    i32 11, label %15
    i32 12, label %15
    i32 13, label %15
    i32 14, label %15
    i32 15, label %15
  ]

6:                                                ; preds = %2
  %7 = load ptr, ptr %3, align 8, !tbaa !3
  %8 = call i32 @H5RS_acat(ptr noundef %7, ptr noundef @.str.538)
  br label %25

9:                                                ; preds = %2
  %10 = load ptr, ptr %3, align 8, !tbaa !3
  %11 = call i32 @H5RS_acat(ptr noundef %10, ptr noundef @.str.539)
  br label %25

12:                                               ; preds = %2
  %13 = load ptr, ptr %3, align 8, !tbaa !3
  %14 = call i32 @H5RS_acat(ptr noundef %13, ptr noundef @.str.540)
  br label %25

15:                                               ; preds = %2, %2, %2, %2, %2, %2, %2, %2, %2, %2, %2, %2, %2, %2
  %16 = load ptr, ptr %3, align 8, !tbaa !3
  %17 = load i32, ptr %4, align 4, !tbaa !12
  %18 = sext i32 %17 to i64
  %19 = call i32 (ptr, ptr, ...) @H5RS_asprintf_cat(ptr noundef %16, ptr noundef @.str.541, i64 noundef %18)
  br label %25

20:                                               ; preds = %2
  %21 = load ptr, ptr %3, align 8, !tbaa !3
  %22 = load i32, ptr %4, align 4, !tbaa !12
  %23 = sext i32 %22 to i64
  %24 = call i32 (ptr, ptr, ...) @H5RS_asprintf_cat(ptr noundef %21, ptr noundef @.str.32, i64 noundef %23)
  br label %25

25:                                               ; preds = %20, %15, %12, %9, %6
  ret i32 0
}