; Function Attrs: nounwind uwtable
define internal fastcc void @H5_trace_args_cset(ptr noundef %0, i32 noundef %1) unnamed_addr #0 {
  switch i32 %1, label %12 [
    i32 -1, label %3
    i32 0, label %5
    i32 1, label %7
    i32 2, label %9
    i32 3, label %9
    i32 4, label %9
    i32 5, label %9
    i32 6, label %9
    i32 7, label %9
    i32 8, label %9
    i32 9, label %9
    i32 10, label %9
    i32 11, label %9
    i32 12, label %9
    i32 13, label %9
    i32 14, label %9
    i32 15, label %9
  ]

3:                                                ; preds = %2
  %4 = tail call i32 @H5RS_acat(ptr noundef %0, ptr noundef nonnull @.str.538) #10
  br label %15

5:                                                ; preds = %2
  %6 = tail call i32 @H5RS_acat(ptr noundef %0, ptr noundef nonnull @.str.539) #10
  br label %15

7:                                                ; preds = %2
  %8 = tail call i32 @H5RS_acat(ptr noundef %0, ptr noundef nonnull @.str.540) #10
  br label %15

9:                                                ; preds = %2, %2, %2, %2, %2, %2, %2, %2, %2, %2, %2, %2, %2, %2
  %10 = zext nneg i32 %1 to i64
  %11 = tail call i32 (ptr, ptr, ...) @H5RS_asprintf_cat(ptr noundef %0, ptr noundef nonnull @.str.541, i64 noundef %10) #10
  br label %15

12:                                               ; preds = %2
  %13 = sext i32 %1 to i64
  %14 = tail call i32 (ptr, ptr, ...) @H5RS_asprintf_cat(ptr noundef %0, ptr noundef nonnull @.str.32, i64 noundef %13) #10
  br label %15

15:                                               ; preds = %12, %9, %7, %5, %3
  ret void
}